#include <math.h>
#include <stdio.h>
#include <stdlib.h>
#include <string.h>

int main(){
    int n,i,j,len;
    char a[33],b[33];
    scanf("%d\n",&n);
    for(i=0;i<n;i++){
                     len=0;
                     scanf("%s\n",a);
                     len=strlen(a);
                     if(a[len-1]=='r'){
                                       for(j=0;j<len-2;j++){
                                                            b[j]=a[j];}
                                       b[len-2]='\0';}
                     if(a[len-1]=='y'){
                                       for(j=0;j<len-2;j++){
                                                            b[j]=a[j];}
                                       b[len-2]='\0';}
                     if(a[len-1]=='g'){
                                       for(j=0;j<len-3;j++){
                                                            b[j]=a[j];}
                                       b[len-3]='\0';}
                     printf("%s\n",b);
                     }
    return 0;
}
