; ModuleID = '57/784.c'
source_filename = "57/784.c"
target datalayout = "e-m:e-p270:32:32-p271:32:32-p272:64:64-i64:64-f80:128-n8:16:32:64-S128"
target triple = "x86_64-pc-linux-gnu"

@.str = private unnamed_addr constant [4 x i8] c"%d\0A\00", align 1
@.str.1 = private unnamed_addr constant [4 x i8] c"%s\0A\00", align 1

; Function Attrs: noinline nounwind uwtable
define dso_local i32 @main() #0 {
  %1 = alloca i32, align 4
  %2 = alloca i32, align 4
  %3 = alloca i32, align 4
  %4 = alloca i32, align 4
  %5 = alloca i32, align 4
  %6 = alloca [33 x i8], align 16
  %7 = alloca [33 x i8], align 16
  store i32 0, i32* %1, align 4
  %8 = call i32 (i8*, ...) @__isoc99_scanf(i8* getelementptr inbounds ([4 x i8], [4 x i8]* @.str, i64 0, i64 0), i32* %2)
  store i32 0, i32* %3, align 4
  br label %9

9:                                                ; preds = %111, %0
  %10 = load i32, i32* %3, align 4
  %11 = load i32, i32* %2, align 4
  %12 = icmp slt i32 %10, %11
  br i1 %12, label %13, label %114

13:                                               ; preds = %9
  store i32 0, i32* %5, align 4
  %14 = getelementptr inbounds [33 x i8], [33 x i8]* %6, i64 0, i64 0
  %15 = call i32 (i8*, ...) @__isoc99_scanf(i8* getelementptr inbounds ([4 x i8], [4 x i8]* @.str.1, i64 0, i64 0), i8* %14)
  %16 = getelementptr inbounds [33 x i8], [33 x i8]* %6, i64 0, i64 0
  %17 = call i64 @strlen(i8* %16) #3
  %18 = trunc i64 %17 to i32
  store i32 %18, i32* %5, align 4
  %19 = load i32, i32* %5, align 4
  %20 = sub nsw i32 %19, 1
  %21 = sext i32 %20 to i64
  %22 = getelementptr inbounds [33 x i8], [33 x i8]* %6, i64 0, i64 %21
  %23 = load i8, i8* %22, align 1
  %24 = sext i8 %23 to i32
  %25 = icmp eq i32 %24, 114
  br i1 %25, label %26, label %48

26:                                               ; preds = %13
  store i32 0, i32* %4, align 4
  br label %27

27:                                               ; preds = %40, %26
  %28 = load i32, i32* %4, align 4
  %29 = load i32, i32* %5, align 4
  %30 = sub nsw i32 %29, 2
  %31 = icmp slt i32 %28, %30
  br i1 %31, label %32, label %43

32:                                               ; preds = %27
  %33 = load i32, i32* %4, align 4
  %34 = sext i32 %33 to i64
  %35 = getelementptr inbounds [33 x i8], [33 x i8]* %6, i64 0, i64 %34
  %36 = load i8, i8* %35, align 1
  %37 = load i32, i32* %4, align 4
  %38 = sext i32 %37 to i64
  %39 = getelementptr inbounds [33 x i8], [33 x i8]* %7, i64 0, i64 %38
  store i8 %36, i8* %39, align 1
  br label %40

40:                                               ; preds = %32
  %41 = load i32, i32* %4, align 4
  %42 = add nsw i32 %41, 1
  store i32 %42, i32* %4, align 4
  br label %27

43:                                               ; preds = %27
  %44 = load i32, i32* %5, align 4
  %45 = sub nsw i32 %44, 2
  %46 = sext i32 %45 to i64
  %47 = getelementptr inbounds [33 x i8], [33 x i8]* %7, i64 0, i64 %46
  store i8 0, i8* %47, align 1
  br label %48

48:                                               ; preds = %43, %13
  %49 = load i32, i32* %5, align 4
  %50 = sub nsw i32 %49, 1
  %51 = sext i32 %50 to i64
  %52 = getelementptr inbounds [33 x i8], [33 x i8]* %6, i64 0, i64 %51
  %53 = load i8, i8* %52, align 1
  %54 = sext i8 %53 to i32
  %55 = icmp eq i32 %54, 121
  br i1 %55, label %56, label %78

56:                                               ; preds = %48
  store i32 0, i32* %4, align 4
  br label %57

57:                                               ; preds = %70, %56
  %58 = load i32, i32* %4, align 4
  %59 = load i32, i32* %5, align 4
  %60 = sub nsw i32 %59, 2
  %61 = icmp slt i32 %58, %60
  br i1 %61, label %62, label %73

62:                                               ; preds = %57
  %63 = load i32, i32* %4, align 4
  %64 = sext i32 %63 to i64
  %65 = getelementptr inbounds [33 x i8], [33 x i8]* %6, i64 0, i64 %64
  %66 = load i8, i8* %65, align 1
  %67 = load i32, i32* %4, align 4
  %68 = sext i32 %67 to i64
  %69 = getelementptr inbounds [33 x i8], [33 x i8]* %7, i64 0, i64 %68
  store i8 %66, i8* %69, align 1
  br label %70

70:                                               ; preds = %62
  %71 = load i32, i32* %4, align 4
  %72 = add nsw i32 %71, 1
  store i32 %72, i32* %4, align 4
  br label %57

73:                                               ; preds = %57
  %74 = load i32, i32* %5, align 4
  %75 = sub nsw i32 %74, 2
  %76 = sext i32 %75 to i64
  %77 = getelementptr inbounds [33 x i8], [33 x i8]* %7, i64 0, i64 %76
  store i8 0, i8* %77, align 1
  br label %78

78:                                               ; preds = %73, %48
  %79 = load i32, i32* %5, align 4
  %80 = sub nsw i32 %79, 1
  %81 = sext i32 %80 to i64
  %82 = getelementptr inbounds [33 x i8], [33 x i8]* %6, i64 0, i64 %81
  %83 = load i8, i8* %82, align 1
  %84 = sext i8 %83 to i32
  %85 = icmp eq i32 %84, 103
  br i1 %85, label %86, label %108

86:                                               ; preds = %78
  store i32 0, i32* %4, align 4
  br label %87

87:                                               ; preds = %100, %86
  %88 = load i32, i32* %4, align 4
  %89 = load i32, i32* %5, align 4
  %90 = sub nsw i32 %89, 3
  %91 = icmp slt i32 %88, %90
  br i1 %91, label %92, label %103

92:                                               ; preds = %87
  %93 = load i32, i32* %4, align 4
  %94 = sext i32 %93 to i64
  %95 = getelementptr inbounds [33 x i8], [33 x i8]* %6, i64 0, i64 %94
  %96 = load i8, i8* %95, align 1
  %97 = load i32, i32* %4, align 4
  %98 = sext i32 %97 to i64
  %99 = getelementptr inbounds [33 x i8], [33 x i8]* %7, i64 0, i64 %98
  store i8 %96, i8* %99, align 1
  br label %100

100:                                              ; preds = %92
  %101 = load i32, i32* %4, align 4
  %102 = add nsw i32 %101, 1
  store i32 %102, i32* %4, align 4
  br label %87

103:                                              ; preds = %87
  %104 = load i32, i32* %5, align 4
  %105 = sub nsw i32 %104, 3
  %106 = sext i32 %105 to i64
  %107 = getelementptr inbounds [33 x i8], [33 x i8]* %7, i64 0, i64 %106
  store i8 0, i8* %107, align 1
  br label %108

108:                                              ; preds = %103, %78
  %109 = getelementptr inbounds [33 x i8], [33 x i8]* %7, i64 0, i64 0
  %110 = call i32 (i8*, ...) @printf(i8* getelementptr inbounds ([4 x i8], [4 x i8]* @.str.1, i64 0, i64 0), i8* %109)
  br label %111

111:                                              ; preds = %108
  %112 = load i32, i32* %3, align 4
  %113 = add nsw i32 %112, 1
  store i32 %113, i32* %3, align 4
  br label %9

114:                                              ; preds = %9
  ret i32 0
}

declare dso_local i32 @__isoc99_scanf(i8*, ...) #1

; Function Attrs: nounwind readonly
declare dso_local i64 @strlen(i8*) #2

declare dso_local i32 @printf(i8*, ...) #1


!llvm.module.flags = !{!0}
!llvm.ident = !{!1}

!0 = !{i32 1, !"wchar_size", i32 4}
!1 = !{!"clang version 10.0.0-4ubuntu1 "}
